target datalayout = "e-m:e-p270:32:32-p271:32:32-p272:64:64-i64:64-i128:128-f80:128-n8:16:32:64-S128"
target triple = "x86_64-pc-linux-gnu"

%struct.Gla_Man_t_ = type { ptr, ptr, ptr, ptr, ptr, ptr, ptr, i32, i32, i32, i32, i32, ptr, ptr, ptr, ptr, ptr, ptr, ptr, i32, ptr, ptr, ptr, i64, i64, i64, i64, i64 }
%struct.Vec_Int_t_ = type { i32, i32, ptr }

; Function Attrs: inlinehint nounwind uwtable
define internal i32 @Vec_IntEntry(ptr noundef %0, i32 noundef %1) #2 {
  %3 = alloca ptr, align 8
  %4 = alloca i32, align 4
  store ptr %0, ptr %3, align 8, !tbaa !12
  store i32 %1, ptr %4, align 4, !tbaa !14
  %5 = load ptr, ptr %3, align 8, !tbaa !12
  %6 = getelementptr inbounds nuw %struct.Vec_Int_t_, ptr %5, i32 0, i32 2
  %7 = load ptr, ptr %6, align 8, !tbaa !48
  %8 = load i32, ptr %4, align 4, !tbaa !14
  %9 = sext i32 %8 to i64
  %10 = getelementptr inbounds i32, ptr %7, i64 %9
  %11 = load i32, ptr %10, align 4, !tbaa !14
  ret i32 %11
}

; Function Attrs: inlinehint nounwind uwtable
define internal i32 @Vec_IntSize(ptr noundef %0) #2 {
  %2 = alloca ptr, align 8
  store ptr %0, ptr %2, align 8, !tbaa !12
  %3 = load ptr, ptr %2, align 8, !tbaa !12
  %4 = getelementptr inbounds nuw %struct.Vec_Int_t_, ptr %3, i32 0, i32 1
  %5 = load i32, ptr %4, align 4, !tbaa !46
  ret i32 %5
}

; Function Attrs: nounwind uwtable
define void @Gia_GlaAddOneSlice(ptr noundef %0, i32 noundef %1, ptr noundef %2) #0 {
  %4 = alloca ptr, align 8
  %5 = alloca i32, align 4
  %6 = alloca ptr, align 8
  %7 = alloca i32, align 4
  %8 = alloca i32, align 4
  %9 = alloca i32, align 4
  store ptr %0, ptr %4, align 8, !tbaa !3
  store i32 %1, ptr %5, align 4, !tbaa !14
  store ptr %2, ptr %6, align 8, !tbaa !12
  call void @llvm.lifetime.start.p0(i64 4, ptr %7) #13
  call void @llvm.lifetime.start.p0(i64 4, ptr %8) #13
  call void @llvm.lifetime.start.p0(i64 4, ptr %9) #13
  %10 = load i32, ptr %5, align 4, !tbaa !14
  store i32 %10, ptr %7, align 4, !tbaa !14
  br label %11

11:                                               ; preds = %37, %3
  %12 = load i32, ptr %7, align 4, !tbaa !14
  %13 = icmp sge i32 %12, 0
  br i1 %13, label %14, label %40

14:                                               ; preds = %11
  store i32 0, ptr %8, align 4, !tbaa !14
  br label %15

15:                                               ; preds = %33, %14
  %16 = load i32, ptr %8, align 4, !tbaa !14
  %17 = load ptr, ptr %6, align 8, !tbaa !12
  %18 = call i32 @Vec_IntSize(ptr noundef %17)
  %19 = icmp slt i32 %16, %18
  br i1 %19, label %20, label %24

20:                                               ; preds = %15
  %21 = load ptr, ptr %6, align 8, !tbaa !12
  %22 = load i32, ptr %8, align 4, !tbaa !14
  %23 = call i32 @Vec_IntEntry(ptr noundef %21, i32 noundef %22)
  store i32 %23, ptr %9, align 4, !tbaa !14
  br label %24

24:                                               ; preds = %20, %15
  %25 = phi i1 [ false, %15 ], [ true, %20 ]
  br i1 %25, label %26, label %36

26:                                               ; preds = %24
  %27 = load ptr, ptr %4, align 8, !tbaa !3
  %28 = load i32, ptr %9, align 4, !tbaa !14
  %29 = load i32, ptr %7, align 4, !tbaa !14
  %30 = load ptr, ptr %4, align 8, !tbaa !3
  %31 = getelementptr inbounds nuw %struct.Gla_Man_t_, ptr %30, i32 0, i32 14
  %32 = load ptr, ptr %31, align 8, !tbaa !142
  call void @Gla_ManAddClauses(ptr noundef %27, i32 noundef %28, i32 noundef %29, ptr noundef %32)
  br label %33

33:                                               ; preds = %26
  %34 = load i32, ptr %8, align 4, !tbaa !14
  %35 = add nsw i32 %34, 1
  store i32 %35, ptr %8, align 4, !tbaa !14
  br label %15, !llvm.loop !212

36:                                               ; preds = %24
  br label %37

37:                                               ; preds = %36
  %38 = load i32, ptr %7, align 4, !tbaa !14
  %39 = add nsw i32 %38, -1
  store i32 %39, ptr %7, align 4, !tbaa !14
  br label %11, !llvm.loop !213

40:                                               ; preds = %11
  %41 = load ptr, ptr %4, align 8, !tbaa !3
  %42 = getelementptr inbounds nuw %struct.Gla_Man_t_, ptr %41, i32 0, i32 13
  %43 = load ptr, ptr %42, align 8, !tbaa !66
  %44 = call i32 @sat_solver2_simplify(ptr noundef %43)
  call void @llvm.lifetime.end.p0(i64 4, ptr %9) #13
  call void @llvm.lifetime.end.p0(i64 4, ptr %8) #13
  call void @llvm.lifetime.end.p0(i64 4, ptr %7) #13
  ret void
}