; Function Attrs: nounwind uwtable
define void @Gia_GlaAddOneSlice(ptr noundef captures(none) %0, i32 noundef %1, ptr noundef readonly captures(none) %2) local_unnamed_addr #0 {
  %4 = icmp sgt i32 %1, -1
  br i1 %4, label %.preheader.lr.ph, label %._crit_edge

.preheader.lr.ph:                                 ; preds = %3
  %5 = getelementptr i8, ptr %2, i64 4
  %6 = getelementptr i8, ptr %2, i64 8
  %7 = getelementptr inbounds nuw i8, ptr %0, i64 96
  %8 = load i32, ptr %5, align 4, !tbaa !3
  %9 = icmp sgt i32 %8, 0
  br i1 %9, label %.preheader, label %._crit_edge

.preheader:                                       ; preds = %.preheader.lr.ph, %.critedge
  %.val14 = phi i32 [ %.val1419, %.critedge ], [ %8, %.preheader.lr.ph ]
  %.016 = phi i32 [ %16, %.critedge ], [ %1, %.preheader.lr.ph ]
  %10 = icmp sgt i32 %.val14, 0
  br i1 %10, label %.lr.ph, label %.critedge

.lr.ph:                                           ; preds = %.preheader, %.lr.ph
  %indvars.iv = phi i64 [ %indvars.iv.next, %.lr.ph ], [ 0, %.preheader ]
  %.val13 = load ptr, ptr %6, align 8, !tbaa !11
  %11 = getelementptr inbounds nuw i32, ptr %.val13, i64 %indvars.iv
  %12 = load i32, ptr %11, align 4, !tbaa !22
  %13 = load ptr, ptr %7, align 8, !tbaa !145
  tail call void @Gla_ManAddClauses(ptr noundef %0, i32 noundef %12, i32 noundef %.016, ptr noundef %13)
  %indvars.iv.next = add nuw nsw i64 %indvars.iv, 1
  %.val = load i32, ptr %5, align 4, !tbaa !3
  %14 = sext i32 %.val to i64
  %15 = icmp slt i64 %indvars.iv.next, %14
  br i1 %15, label %.lr.ph, label %.critedge, !llvm.loop !212

.critedge:                                        ; preds = %.lr.ph, %.preheader
  %.val1419 = phi i32 [ %.val14, %.preheader ], [ %.val, %.lr.ph ]
  %16 = add nsw i32 %.016, -1
  %17 = icmp sgt i32 %.016, 0
  br i1 %17, label %.preheader, label %._crit_edge, !llvm.loop !213

._crit_edge:                                      ; preds = %.critedge, %.preheader.lr.ph, %3
  %18 = getelementptr inbounds nuw i8, ptr %0, i64 88
  %19 = load ptr, ptr %18, align 8, !tbaa !53
  %20 = tail call i32 @sat_solver2_simplify(ptr noundef %19) #29
  ret void
}